
rotary_encoder.elf:     file format elf32-littlearm

Sections:
Idx Name          Size      VMA       LMA       File off  Algn
  0 .isr_vector   00000198  08000000  08000000  00001000  2**0
                  CONTENTS, ALLOC, LOAD, READONLY, DATA
  1 .text         00000288  08000198  08000198  00001198  2**2
                  CONTENTS, ALLOC, LOAD, READONLY, CODE
  2 .rodata       00000000  08000420  08000428  00001428  2**0
                  CONTENTS, ALLOC, LOAD, DATA
  3 .ARM.extab    00000000  08000420  08000420  00001428  2**0
                  CONTENTS, READONLY
  4 .ARM          00000000  08000420  08000420  00001428  2**0
                  CONTENTS, READONLY
  5 .preinit_array 00000000  08000420  08000428  00001428  2**0
                  CONTENTS, ALLOC, LOAD, DATA
  6 .init_array   00000004  08000420  08000420  00001420  2**2
                  CONTENTS, ALLOC, LOAD, READONLY, DATA
  7 .fini_array   00000004  08000424  08000424  00001424  2**2
                  CONTENTS, ALLOC, LOAD, READONLY, DATA
  8 .data         00000000  20000000  20000000  00001428  2**0
                  CONTENTS, ALLOC, LOAD, DATA
  9 .bss          00000020  20000000  08000428  00002000  2**2
                  ALLOC
 10 ._user_heap_stack 00000600  20000020  08000428  00002020  2**0
                  ALLOC
 11 .ARM.attributes 00000030  00000000  00000000  00001428  2**0
                  CONTENTS, READONLY
 12 .debug_info   000004e5  00000000  00000000  00001458  2**0
                  CONTENTS, READONLY, DEBUGGING, OCTETS
 13 .debug_abbrev 00000126  00000000  00000000  0000193d  2**0
                  CONTENTS, READONLY, DEBUGGING, OCTETS
 14 .debug_aranges 00000058  00000000  00000000  00001a68  2**3
                  CONTENTS, READONLY, DEBUGGING, OCTETS
 15 .debug_rnglists 0000003a  00000000  00000000  00001ac0  2**0
                  CONTENTS, READONLY, DEBUGGING, OCTETS
 16 .debug_macro  0000dbce  00000000  00000000  00001afa  2**0
                  CONTENTS, READONLY, DEBUGGING, OCTETS
 17 .debug_line   000005e5  00000000  00000000  0000f6c8  2**0
                  CONTENTS, READONLY, DEBUGGING, OCTETS
 18 .debug_str    0004f76f  00000000  00000000  0000fcad  2**0
                  CONTENTS, READONLY, DEBUGGING, OCTETS
 19 .comment      00000043  00000000  00000000  0005f41c  2**0
                  CONTENTS, READONLY
 20 .debug_frame  0000009c  00000000  00000000  0005f460  2**2
                  CONTENTS, READONLY, DEBUGGING, OCTETS
 21 .debug_line_str 00000075  00000000  00000000  0005f4fc  2**0
                  CONTENTS, READONLY, DEBUGGING, OCTETS

Disassembly of section .text:

08000198 <__do_global_dtors_aux>:
 8000198:	b510      	push	{r4, lr}
 800019a:	4c05      	ldr	r4, [pc, #20]	@ (80001b0 <__do_global_dtors_aux+0x18>)
 800019c:	7823      	ldrb	r3, [r4, #0]
 800019e:	b933      	cbnz	r3, 80001ae <__do_global_dtors_aux+0x16>
 80001a0:	4b04      	ldr	r3, [pc, #16]	@ (80001b4 <__do_global_dtors_aux+0x1c>)
 80001a2:	b113      	cbz	r3, 80001aa <__do_global_dtors_aux+0x12>
 80001a4:	4804      	ldr	r0, [pc, #16]	@ (80001b8 <__do_global_dtors_aux+0x20>)
 80001a6:	f3af 8000 	nop.w
 80001aa:	2301      	movs	r3, #1
 80001ac:	7023      	strb	r3, [r4, #0]
 80001ae:	bd10      	pop	{r4, pc}
 80001b0:	20000000 	.word	0x20000000
 80001b4:	00000000 	.word	0x00000000
 80001b8:	08000408 	.word	0x08000408

080001bc <frame_dummy>:
 80001bc:	b508      	push	{r3, lr}
 80001be:	4b03      	ldr	r3, [pc, #12]	@ (80001cc <frame_dummy+0x10>)
 80001c0:	b11b      	cbz	r3, 80001ca <frame_dummy+0xe>
 80001c2:	4903      	ldr	r1, [pc, #12]	@ (80001d0 <frame_dummy+0x14>)
 80001c4:	4803      	ldr	r0, [pc, #12]	@ (80001d4 <frame_dummy+0x18>)
 80001c6:	f3af 8000 	nop.w
 80001ca:	bd08      	pop	{r3, pc}
 80001cc:	00000000 	.word	0x00000000
 80001d0:	20000004 	.word	0x20000004
 80001d4:	08000408 	.word	0x08000408

080001d8 <GPIO_Encoder_Init>:
volatile uint8_t encoder_value = 0;   // WATCH THIS (0–20)
static uint16_t last_cnt = 0;

/* ================= GPIO INIT ================= */
void GPIO_Encoder_Init(void)
{
 80001d8:	b480      	push	{r7}
 80001da:	af00      	add	r7, sp, #0
    RCC->AHB1ENR |= RCC_AHB1ENR_GPIOAEN;
 80001dc:	4b17      	ldr	r3, [pc, #92]	@ (800023c <GPIO_Encoder_Init+0x64>)
 80001de:	6b1b      	ldr	r3, [r3, #48]	@ 0x30
 80001e0:	4a16      	ldr	r2, [pc, #88]	@ (800023c <GPIO_Encoder_Init+0x64>)
 80001e2:	f043 0301 	orr.w	r3, r3, #1
 80001e6:	6313      	str	r3, [r2, #48]	@ 0x30

    /* PA8, PA9 → Alternate Function */
    GPIOA->MODER &= ~((3U << (8 * 2)) | (3U << (9 * 2)));
 80001e8:	4b15      	ldr	r3, [pc, #84]	@ (8000240 <GPIO_Encoder_Init+0x68>)
 80001ea:	681b      	ldr	r3, [r3, #0]
 80001ec:	4a14      	ldr	r2, [pc, #80]	@ (8000240 <GPIO_Encoder_Init+0x68>)
 80001ee:	f423 2370 	bic.w	r3, r3, #983040	@ 0xf0000
 80001f2:	6013      	str	r3, [r2, #0]
    GPIOA->MODER |=  ((2U << (8 * 2)) | (2U << (9 * 2)));
 80001f4:	4b12      	ldr	r3, [pc, #72]	@ (8000240 <GPIO_Encoder_Init+0x68>)
 80001f6:	681b      	ldr	r3, [r3, #0]
 80001f8:	4a11      	ldr	r2, [pc, #68]	@ (8000240 <GPIO_Encoder_Init+0x68>)
 80001fa:	f443 2320 	orr.w	r3, r3, #655360	@ 0xa0000
 80001fe:	6013      	str	r3, [r2, #0]

    /* AF1 → TIM1 */
    GPIOA->AFR[1] &= ~((0xF << 0) | (0xF << 4));
 8000200:	4b0f      	ldr	r3, [pc, #60]	@ (8000240 <GPIO_Encoder_Init+0x68>)
 8000202:	6a5b      	ldr	r3, [r3, #36]	@ 0x24
 8000204:	4a0e      	ldr	r2, [pc, #56]	@ (8000240 <GPIO_Encoder_Init+0x68>)
 8000206:	f023 03ff 	bic.w	r3, r3, #255	@ 0xff
 800020a:	6253      	str	r3, [r2, #36]	@ 0x24
    GPIOA->AFR[1] |=  ((1 << 0) | (1 << 4));
 800020c:	4b0c      	ldr	r3, [pc, #48]	@ (8000240 <GPIO_Encoder_Init+0x68>)
 800020e:	6a5b      	ldr	r3, [r3, #36]	@ 0x24
 8000210:	4a0b      	ldr	r2, [pc, #44]	@ (8000240 <GPIO_Encoder_Init+0x68>)
 8000212:	f043 0311 	orr.w	r3, r3, #17
 8000216:	6253      	str	r3, [r2, #36]	@ 0x24

    /* Internal Pull-ups (MANDATORY for KY-040) */
    GPIOA->PUPDR &= ~((3U << (8 * 2)) | (3U << (9 * 2)));
 8000218:	4b09      	ldr	r3, [pc, #36]	@ (8000240 <GPIO_Encoder_Init+0x68>)
 800021a:	68db      	ldr	r3, [r3, #12]
 800021c:	4a08      	ldr	r2, [pc, #32]	@ (8000240 <GPIO_Encoder_Init+0x68>)
 800021e:	f423 2370 	bic.w	r3, r3, #983040	@ 0xf0000
 8000222:	60d3      	str	r3, [r2, #12]
    GPIOA->PUPDR |=  ((1U << (8 * 2)) | (1U << (9 * 2)));
 8000224:	4b06      	ldr	r3, [pc, #24]	@ (8000240 <GPIO_Encoder_Init+0x68>)
 8000226:	68db      	ldr	r3, [r3, #12]
 8000228:	4a05      	ldr	r2, [pc, #20]	@ (8000240 <GPIO_Encoder_Init+0x68>)
 800022a:	f443 23a0 	orr.w	r3, r3, #327680	@ 0x50000
 800022e:	60d3      	str	r3, [r2, #12]
}
 8000230:	bf00      	nop
 8000232:	46bd      	mov	sp, r7
 8000234:	f85d 7b04 	ldr.w	r7, [sp], #4
 8000238:	4770      	bx	lr
 800023a:	bf00      	nop
 800023c:	40023800 	.word	0x40023800
 8000240:	40020000 	.word	0x40020000

08000244 <TIM1_Encoder_Init>:

/* ================= TIM1 ENCODER INIT ================= */
void TIM1_Encoder_Init(void)
{
 8000244:	b480      	push	{r7}
 8000246:	af00      	add	r7, sp, #0
    RCC->APB2ENR |= RCC_APB2ENR_TIM1EN;
 8000248:	4b24      	ldr	r3, [pc, #144]	@ (80002dc <TIM1_Encoder_Init+0x98>)
 800024a:	6c5b      	ldr	r3, [r3, #68]	@ 0x44
 800024c:	4a23      	ldr	r2, [pc, #140]	@ (80002dc <TIM1_Encoder_Init+0x98>)
 800024e:	f043 0301 	orr.w	r3, r3, #1
 8000252:	6453      	str	r3, [r2, #68]	@ 0x44

    TIM1->CR1 = 0;
 8000254:	4b22      	ldr	r3, [pc, #136]	@ (80002e0 <TIM1_Encoder_Init+0x9c>)
 8000256:	2200      	movs	r2, #0
 8000258:	601a      	str	r2, [r3, #0]
    TIM1->CNT = 0;
 800025a:	4b21      	ldr	r3, [pc, #132]	@ (80002e0 <TIM1_Encoder_Init+0x9c>)
 800025c:	2200      	movs	r2, #0
 800025e:	625a      	str	r2, [r3, #36]	@ 0x24

    /* Encoder Mode 3 (x4 decoding) */
    TIM1->SMCR &= ~TIM_SMCR_SMS;
 8000260:	4b1f      	ldr	r3, [pc, #124]	@ (80002e0 <TIM1_Encoder_Init+0x9c>)
 8000262:	689b      	ldr	r3, [r3, #8]
 8000264:	4a1e      	ldr	r2, [pc, #120]	@ (80002e0 <TIM1_Encoder_Init+0x9c>)
 8000266:	f023 0307 	bic.w	r3, r3, #7
 800026a:	6093      	str	r3, [r2, #8]
    TIM1->SMCR |=  TIM_SMCR_SMS_0 | TIM_SMCR_SMS_1;
 800026c:	4b1c      	ldr	r3, [pc, #112]	@ (80002e0 <TIM1_Encoder_Init+0x9c>)
 800026e:	689b      	ldr	r3, [r3, #8]
 8000270:	4a1b      	ldr	r2, [pc, #108]	@ (80002e0 <TIM1_Encoder_Init+0x9c>)
 8000272:	f043 0303 	orr.w	r3, r3, #3
 8000276:	6093      	str	r3, [r2, #8]

    /* CC1 & CC2 as inputs */
    TIM1->CCMR1 &= ~(TIM_CCMR1_CC1S | TIM_CCMR1_CC2S);
 8000278:	4b19      	ldr	r3, [pc, #100]	@ (80002e0 <TIM1_Encoder_Init+0x9c>)
 800027a:	699b      	ldr	r3, [r3, #24]
 800027c:	4a18      	ldr	r2, [pc, #96]	@ (80002e0 <TIM1_Encoder_Init+0x9c>)
 800027e:	f423 7340 	bic.w	r3, r3, #768	@ 0x300
 8000282:	f023 0303 	bic.w	r3, r3, #3
 8000286:	6193      	str	r3, [r2, #24]
    TIM1->CCMR1 |=  (TIM_CCMR1_CC1S_0 | TIM_CCMR1_CC2S_0);
 8000288:	4b15      	ldr	r3, [pc, #84]	@ (80002e0 <TIM1_Encoder_Init+0x9c>)
 800028a:	699b      	ldr	r3, [r3, #24]
 800028c:	4a14      	ldr	r2, [pc, #80]	@ (80002e0 <TIM1_Encoder_Init+0x9c>)
 800028e:	f443 7380 	orr.w	r3, r3, #256	@ 0x100
 8000292:	f043 0301 	orr.w	r3, r3, #1
 8000296:	6193      	str	r3, [r2, #24]

    /* Input filter (strong debounce for KY-040) */
    TIM1->CCMR1 |= (6 << TIM_CCMR1_IC1F_Pos);
 8000298:	4b11      	ldr	r3, [pc, #68]	@ (80002e0 <TIM1_Encoder_Init+0x9c>)
 800029a:	699b      	ldr	r3, [r3, #24]
 800029c:	4a10      	ldr	r2, [pc, #64]	@ (80002e0 <TIM1_Encoder_Init+0x9c>)
 800029e:	f043 0360 	orr.w	r3, r3, #96	@ 0x60
 80002a2:	6193      	str	r3, [r2, #24]
    TIM1->CCMR1 |= (6 << TIM_CCMR1_IC2F_Pos);
 80002a4:	4b0e      	ldr	r3, [pc, #56]	@ (80002e0 <TIM1_Encoder_Init+0x9c>)
 80002a6:	699b      	ldr	r3, [r3, #24]
 80002a8:	4a0d      	ldr	r2, [pc, #52]	@ (80002e0 <TIM1_Encoder_Init+0x9c>)
 80002aa:	f443 43c0 	orr.w	r3, r3, #24576	@ 0x6000
 80002ae:	6193      	str	r3, [r2, #24]

    /* Rising edge */
    TIM1->CCER &= ~(TIM_CCER_CC1P | TIM_CCER_CC2P);
 80002b0:	4b0b      	ldr	r3, [pc, #44]	@ (80002e0 <TIM1_Encoder_Init+0x9c>)
 80002b2:	6a1b      	ldr	r3, [r3, #32]
 80002b4:	4a0a      	ldr	r2, [pc, #40]	@ (80002e0 <TIM1_Encoder_Init+0x9c>)
 80002b6:	f023 0322 	bic.w	r3, r3, #34	@ 0x22
 80002ba:	6213      	str	r3, [r2, #32]

    TIM1->ARR = 0xFFFF;
 80002bc:	4b08      	ldr	r3, [pc, #32]	@ (80002e0 <TIM1_Encoder_Init+0x9c>)
 80002be:	f64f 72ff 	movw	r2, #65535	@ 0xffff
 80002c2:	62da      	str	r2, [r3, #44]	@ 0x2c

    TIM1->CR1 |= TIM_CR1_CEN;
 80002c4:	4b06      	ldr	r3, [pc, #24]	@ (80002e0 <TIM1_Encoder_Init+0x9c>)
 80002c6:	681b      	ldr	r3, [r3, #0]
 80002c8:	4a05      	ldr	r2, [pc, #20]	@ (80002e0 <TIM1_Encoder_Init+0x9c>)
 80002ca:	f043 0301 	orr.w	r3, r3, #1
 80002ce:	6013      	str	r3, [r2, #0]
}
 80002d0:	bf00      	nop
 80002d2:	46bd      	mov	sp, r7
 80002d4:	f85d 7b04 	ldr.w	r7, [sp], #4
 80002d8:	4770      	bx	lr
 80002da:	bf00      	nop
 80002dc:	40023800 	.word	0x40023800
 80002e0:	40010000 	.word	0x40010000

080002e4 <main>:

/* ================= MAIN ================= */
int main(void)
{
 80002e4:	b580      	push	{r7, lr}
 80002e6:	b082      	sub	sp, #8
 80002e8:	af00      	add	r7, sp, #0
    GPIO_Encoder_Init();
 80002ea:	f7ff ff75 	bl	80001d8 <GPIO_Encoder_Init>
    TIM1_Encoder_Init();
 80002ee:	f7ff ffa9 	bl	8000244 <TIM1_Encoder_Init>

    last_cnt = TIM1->CNT;
 80002f2:	4b1b      	ldr	r3, [pc, #108]	@ (8000360 <main+0x7c>)
 80002f4:	6a5b      	ldr	r3, [r3, #36]	@ 0x24
 80002f6:	b29a      	uxth	r2, r3
 80002f8:	4b1a      	ldr	r3, [pc, #104]	@ (8000364 <main+0x80>)
 80002fa:	801a      	strh	r2, [r3, #0]

    while (1)
    {
        uint16_t curr_cnt = TIM1->CNT;
 80002fc:	4b18      	ldr	r3, [pc, #96]	@ (8000360 <main+0x7c>)
 80002fe:	6a5b      	ldr	r3, [r3, #36]	@ 0x24
 8000300:	80fb      	strh	r3, [r7, #6]
        int16_t diff = curr_cnt - last_cnt;
 8000302:	4b18      	ldr	r3, [pc, #96]	@ (8000364 <main+0x80>)
 8000304:	881b      	ldrh	r3, [r3, #0]
 8000306:	88fa      	ldrh	r2, [r7, #6]
 8000308:	1ad3      	subs	r3, r2, r3
 800030a:	b29b      	uxth	r3, r3
 800030c:	80bb      	strh	r3, [r7, #4]

        /* 4 counts = 1 physical click (KY-040) */
        if (diff >= 4)
 800030e:	f9b7 3004 	ldrsh.w	r3, [r7, #4]
 8000312:	2b03      	cmp	r3, #3
 8000314:	dd0f      	ble.n	8000336 <main+0x52>
        {
            if (encoder_value < 20)
 8000316:	4b14      	ldr	r3, [pc, #80]	@ (8000368 <main+0x84>)
 8000318:	781b      	ldrb	r3, [r3, #0]
 800031a:	b2db      	uxtb	r3, r3
 800031c:	2b13      	cmp	r3, #19
 800031e:	d806      	bhi.n	800032e <main+0x4a>
                encoder_value++;
 8000320:	4b11      	ldr	r3, [pc, #68]	@ (8000368 <main+0x84>)
 8000322:	781b      	ldrb	r3, [r3, #0]
 8000324:	b2db      	uxtb	r3, r3
 8000326:	3301      	adds	r3, #1
 8000328:	b2da      	uxtb	r2, r3
 800032a:	4b0f      	ldr	r3, [pc, #60]	@ (8000368 <main+0x84>)
 800032c:	701a      	strb	r2, [r3, #0]

            last_cnt = curr_cnt;
 800032e:	4a0d      	ldr	r2, [pc, #52]	@ (8000364 <main+0x80>)
 8000330:	88fb      	ldrh	r3, [r7, #6]
 8000332:	8013      	strh	r3, [r2, #0]
 8000334:	e7e2      	b.n	80002fc <main+0x18>
        }
        else if (diff <= -4)
 8000336:	f9b7 3004 	ldrsh.w	r3, [r7, #4]
 800033a:	f113 0f03 	cmn.w	r3, #3
 800033e:	dadd      	bge.n	80002fc <main+0x18>
        {
            if (encoder_value > 0)
 8000340:	4b09      	ldr	r3, [pc, #36]	@ (8000368 <main+0x84>)
 8000342:	781b      	ldrb	r3, [r3, #0]
 8000344:	b2db      	uxtb	r3, r3
 8000346:	2b00      	cmp	r3, #0
 8000348:	d006      	beq.n	8000358 <main+0x74>
                encoder_value--;
 800034a:	4b07      	ldr	r3, [pc, #28]	@ (8000368 <main+0x84>)
 800034c:	781b      	ldrb	r3, [r3, #0]
 800034e:	b2db      	uxtb	r3, r3
 8000350:	3b01      	subs	r3, #1
 8000352:	b2da      	uxtb	r2, r3
 8000354:	4b04      	ldr	r3, [pc, #16]	@ (8000368 <main+0x84>)
 8000356:	701a      	strb	r2, [r3, #0]

            last_cnt = curr_cnt;
 8000358:	4a02      	ldr	r2, [pc, #8]	@ (8000364 <main+0x80>)
 800035a:	88fb      	ldrh	r3, [r7, #6]
 800035c:	8013      	strh	r3, [r2, #0]
    {
 800035e:	e7cd      	b.n	80002fc <main+0x18>
 8000360:	40010000 	.word	0x40010000
 8000364:	2000001e 	.word	0x2000001e
 8000368:	2000001c 	.word	0x2000001c

0800036c <Reset_Handler>:

  .section .text.Reset_Handler
  .weak Reset_Handler
  .type Reset_Handler, %function
Reset_Handler:
  ldr   r0, =_estack
 800036c:	480d      	ldr	r0, [pc, #52]	@ (80003a4 <LoopForever+0x2>)
  mov   sp, r0          /* set stack pointer */
 800036e:	4685      	mov	sp, r0
/* Call the clock system initialization function.*/
  bl  SystemInit
 8000370:	f3af 8000 	nop.w

/* Copy the data segment initializers from flash to SRAM */
  ldr r0, =_sdata
 8000374:	480c      	ldr	r0, [pc, #48]	@ (80003a8 <LoopForever+0x6>)
  ldr r1, =_edata
 8000376:	490d      	ldr	r1, [pc, #52]	@ (80003ac <LoopForever+0xa>)
  ldr r2, =_sidata
 8000378:	4a0d      	ldr	r2, [pc, #52]	@ (80003b0 <LoopForever+0xe>)
  movs r3, #0
 800037a:	2300      	movs	r3, #0
  b LoopCopyDataInit
 800037c:	e002      	b.n	8000384 <LoopCopyDataInit>

0800037e <CopyDataInit>:

CopyDataInit:
  ldr r4, [r2, r3]
 800037e:	58d4      	ldr	r4, [r2, r3]
  str r4, [r0, r3]
 8000380:	50c4      	str	r4, [r0, r3]
  adds r3, r3, #4
 8000382:	3304      	adds	r3, #4

08000384 <LoopCopyDataInit>:

LoopCopyDataInit:
  adds r4, r0, r3
 8000384:	18c4      	adds	r4, r0, r3
  cmp r4, r1
 8000386:	428c      	cmp	r4, r1
  bcc CopyDataInit
 8000388:	d3f9      	bcc.n	800037e <CopyDataInit>

/* Zero fill the bss segment. */
  ldr r2, =_sbss
 800038a:	4a0a      	ldr	r2, [pc, #40]	@ (80003b4 <LoopForever+0x12>)
  ldr r4, =_ebss
 800038c:	4c0a      	ldr	r4, [pc, #40]	@ (80003b8 <LoopForever+0x16>)
  movs r3, #0
 800038e:	2300      	movs	r3, #0
  b LoopFillZerobss
 8000390:	e001      	b.n	8000396 <LoopFillZerobss>

08000392 <FillZerobss>:

FillZerobss:
  str  r3, [r2]
 8000392:	6013      	str	r3, [r2, #0]
  adds r2, r2, #4
 8000394:	3204      	adds	r2, #4

08000396 <LoopFillZerobss>:

LoopFillZerobss:
  cmp r2, r4
 8000396:	42a2      	cmp	r2, r4
  bcc FillZerobss
 8000398:	d3fb      	bcc.n	8000392 <FillZerobss>


/* Call static constructors */
  bl __libc_init_array
 800039a:	f000 f811 	bl	80003c0 <__libc_init_array>
/* Call the application's entry point.*/

  bl main
 800039e:	f7ff ffa1 	bl	80002e4 <main>

080003a2 <LoopForever>:

LoopForever:
  b LoopForever
 80003a2:	e7fe      	b.n	80003a2 <LoopForever>
  ldr   r0, =_estack
 80003a4:	20020000 	.word	0x20020000
  ldr r0, =_sdata
 80003a8:	20000000 	.word	0x20000000
  ldr r1, =_edata
 80003ac:	20000000 	.word	0x20000000
  ldr r2, =_sidata
 80003b0:	08000428 	.word	0x08000428
  ldr r2, =_sbss
 80003b4:	20000000 	.word	0x20000000
  ldr r4, =_ebss
 80003b8:	20000020 	.word	0x20000020

080003bc <ADC_IRQHandler>:
 * @retval : None
*/
  .section .text.Default_Handler,"ax",%progbits
Default_Handler:
Infinite_Loop:
  b Infinite_Loop
 80003bc:	e7fe      	b.n	80003bc <ADC_IRQHandler>
	...

080003c0 <__libc_init_array>:
 80003c0:	b570      	push	{r4, r5, r6, lr}
 80003c2:	4d0d      	ldr	r5, [pc, #52]	@ (80003f8 <__libc_init_array+0x38>)
 80003c4:	4c0d      	ldr	r4, [pc, #52]	@ (80003fc <__libc_init_array+0x3c>)
 80003c6:	1b64      	subs	r4, r4, r5
 80003c8:	10a4      	asrs	r4, r4, #2
 80003ca:	2600      	movs	r6, #0
 80003cc:	42a6      	cmp	r6, r4
 80003ce:	d109      	bne.n	80003e4 <__libc_init_array+0x24>
 80003d0:	4d0b      	ldr	r5, [pc, #44]	@ (8000400 <__libc_init_array+0x40>)
 80003d2:	4c0c      	ldr	r4, [pc, #48]	@ (8000404 <__libc_init_array+0x44>)
 80003d4:	f000 f818 	bl	8000408 <_init>
 80003d8:	1b64      	subs	r4, r4, r5
 80003da:	10a4      	asrs	r4, r4, #2
 80003dc:	2600      	movs	r6, #0
 80003de:	42a6      	cmp	r6, r4
 80003e0:	d105      	bne.n	80003ee <__libc_init_array+0x2e>
 80003e2:	bd70      	pop	{r4, r5, r6, pc}
 80003e4:	f855 3b04 	ldr.w	r3, [r5], #4
 80003e8:	4798      	blx	r3
 80003ea:	3601      	adds	r6, #1
 80003ec:	e7ee      	b.n	80003cc <__libc_init_array+0xc>
 80003ee:	f855 3b04 	ldr.w	r3, [r5], #4
 80003f2:	4798      	blx	r3
 80003f4:	3601      	adds	r6, #1
 80003f6:	e7f2      	b.n	80003de <__libc_init_array+0x1e>
 80003f8:	08000420 	.word	0x08000420
 80003fc:	08000420 	.word	0x08000420
 8000400:	08000420 	.word	0x08000420
 8000404:	08000424 	.word	0x08000424

08000408 <_init>:
 8000408:	b5f8      	push	{r3, r4, r5, r6, r7, lr}
 800040a:	bf00      	nop
 800040c:	bcf8      	pop	{r3, r4, r5, r6, r7}
 800040e:	bc08      	pop	{r3}
 8000410:	469e      	mov	lr, r3
 8000412:	4770      	bx	lr

08000414 <_fini>:
 8000414:	b5f8      	push	{r3, r4, r5, r6, r7, lr}
 8000416:	bf00      	nop
 8000418:	bcf8      	pop	{r3, r4, r5, r6, r7}
 800041a:	bc08      	pop	{r3}
 800041c:	469e      	mov	lr, r3
 800041e:	4770      	bx	lr
